(dp1
S'OriginalConfig'
p2
ccopy_reg
_reconstructor
p3
(cWMCore.Configuration
Configuration
p4
c__builtin__
object
p5
NtRp6
(dp7
S'Site'
p8
g3
(cWMCore.Configuration
ConfigSection
p9
g5
NtRp10
(dp11
S'_internal_skipChecks'
p12
I00
sS'_internal_documentation'
p13
S''
sS'_internal_settings'
p14
c__builtin__
set
p15
((lp16
S'ignoreGlobalBlacklist'
p17
aS'whitelist'
p18
aS'storageSite'
p19
atRp20
sS'_internal_name'
p21
g8
sS'_internal_docstrings'
p22
(dp23
sS'_internal_children'
p24
g15
((ltRp25
sg19
S'T2_IT_Legnaro'
p26
sg17
I01
sS'_internal_parent_ref'
p27
Nsg18
(lp28
S'T3_US_FNALLPC'
p29
asbsS'_internal_sections'
p30
(lp31
S'General'
p32
aS'JobType'
p33
aS'Data'
p34
ag8
asg32
g3
(g9
g5
NtRp35
(dp36
g12
I00
sg13
S''
sg14
g15
((lp37
S'transferOutputs'
p38
aS'transferLogs'
p39
aS'requestName'
p40
atRp41
sg21
g32
sg22
(dp42
sg38
I01
sg24
g15
((ltRp43
sg40
S'NanoPost1'
p44
sg27
Nsg39
I01
sbsS'_internal_webapps'
p45
(lp46
sS'_internal_components'
p47
(lp48
sg34
g3
(g9
g5
NtRp49
(dp50
S'outputDatasetTag'
p51
S'NanoTestPost'
p52
sS'outputPrimaryDataset'
p53
S'SingleElectronRun2016B-03Feb2017_ver2-v2'
p54
sg12
I00
sS'splitting'
p55
S'FileBased'
p56
sS'unitsPerJob'
p57
I100
sg13
S''
sg14
g15
((lp58
g51
aS'totalUnits'
p59
ag57
aS'userInputFiles'
p60
aS'inputDBS'
p61
ag55
aS'outLFNDirBase'
p62
ag53
aS'publication'
p63
atRp64
sg21
g34
sg61
S'global'
p65
sg22
(dp66
sg24
g15
((ltRp67
sg63
I00
sg62
S'/store/user/shoh/'
p68
sg27
Nsg60
(lp69
S'/lustre/cmswork/hoh/NANO/SSLep/data/SingleElectronRun2016B-03Feb2017_ver2-v2.root'
p70
asg59
I2000
sbsg33
g3
(g9
g5
NtRp71
(dp72
g12
I00
sg13
S''
sg14
g15
((lp73
S'sendExternalFolder'
p74
aS'scriptExe'
p75
aS'pluginName'
p76
aS'sendPythonFolder'
p77
aS'psetName'
p78
aS'inputFiles'
p79
atRp80
sg21
g33
sg75
S'crab_script.sh'
p81
sg22
(dp82
sg77
I01
sg76
S'Analysis'
p83
sg24
g15
((ltRp84
sg78
S'PSet.py'
p85
sg27
Nsg79
(lp86
S'../../../nano_postproc.py'
p87
aS'../../../removeDuplicate.txt'
p88
asg74
I01
sbsbsS'voGroup'
p89
S''
sS'Server'
p90
S'cmsweb.cern.ch'
p91
sS'instance'
p92
S'prod'
p93
sS'RequestName'
p94
V180629_162129:shoh_crab_NanoPost1
p95
sS'voRole'
p96
S'NULL'
p97
sS'Port'
p98
S''
s.